target datalayout = "e-m:e-p270:32:32-p271:32:32-p272:64:64-i64:64-i128:128-f80:128-n8:16:32:64-S128"
target triple = "x86_64-pc-linux-gnu"

%struct._object = type { %union.anon, ptr }
%union.anon = type { i64 }
%struct._typeobject = type { %struct.PyVarObject, ptr, i64, i64, ptr, i64, ptr, ptr, ptr, ptr, ptr, ptr, ptr, ptr, ptr, ptr, ptr, ptr, ptr, i64, ptr, ptr, ptr, ptr, i64, ptr, ptr, ptr, ptr, ptr, ptr, ptr, ptr, ptr, i64, ptr, ptr, ptr, ptr, ptr, ptr, ptr, ptr, ptr, ptr, ptr, i32, ptr, ptr, i8, i16 }
%struct.PyVarObject = type { %struct._object, i64 }
%struct.PyBytesObject = type { %struct.PyVarObject, i64, [1 x i8] }
%struct.anon = type { i32, i32 }
%struct.tagCDataObject = type { %struct._object, ptr, i32, ptr, i64, i64, i64, ptr, %union.value }
%union.value = type { x86_fp80 }

@PyExc_TypeError = external global ptr, align 8
@PyExc_ValueError = external global ptr, align 8
@.str.120 = private unnamed_addr constant [21 x i8] c"byte string too long\00", align 1
@.str.121 = private unnamed_addr constant [23 x i8] c"can't delete attribute\00", align 1
@.str.122 = private unnamed_addr constant [38 x i8] c"bytes expected instead of %s instance\00", align 1

; Function Attrs: alwaysinline nounwind uwtable
define internal i32 @_Py_IsImmortal(ptr noundef %0) #4 {
  %2 = alloca ptr, align 8
  store ptr %0, ptr %2, align 8, !tbaa !7
  %3 = load ptr, ptr %2, align 8, !tbaa !7
  %4 = getelementptr inbounds nuw %struct._object, ptr %3, i32 0, i32 0
  %5 = getelementptr inbounds nuw %struct.anon, ptr %4, i32 0, i32 0
  %6 = load i32, ptr %5, align 8, !tbaa !20
  %7 = icmp slt i32 %6, 0
  %8 = zext i1 %7 to i32
  ret i32 %8
}

; Function Attrs: inlinehint nounwind uwtable
define internal i64 @Py_SIZE(ptr noundef %0) #2 {
  %2 = alloca ptr, align 8
  store ptr %0, ptr %2, align 8, !tbaa !7
  %3 = load ptr, ptr %2, align 8, !tbaa !7
  %4 = getelementptr inbounds nuw %struct.PyVarObject, ptr %3, i32 0, i32 1
  %5 = load i64, ptr %4, align 8, !tbaa !100
  ret i64 %5
}

; Function Attrs: inlinehint nounwind uwtable
define internal void @UNLOCK_PTR(ptr noundef %0) #2 {
  %2 = alloca ptr, align 8
  store ptr %0, ptr %2, align 8, !tbaa !39
  ret void
}

; Function Attrs: inlinehint nounwind uwtable
define internal void @LOCK_PTR(ptr noundef %0) #2 {
  %2 = alloca ptr, align 8
  store ptr %0, ptr %2, align 8, !tbaa !39
  ret void
}

; Function Attrs: inlinehint nounwind uwtable
define internal ptr @PyBytes_AS_STRING(ptr noundef %0) #2 {
  %2 = alloca ptr, align 8
  store ptr %0, ptr %2, align 8, !tbaa !7
  %3 = load ptr, ptr %2, align 8, !tbaa !7
  %4 = getelementptr inbounds nuw %struct.PyBytesObject, ptr %3, i32 0, i32 2
  %5 = getelementptr inbounds [1 x i8], ptr %4, i64 0, i64 0
  ret ptr %5
}

; Function Attrs: alwaysinline nounwind uwtable
define internal void @Py_DECREF(ptr noundef %0) #4 {
  %2 = alloca ptr, align 8
  store ptr %0, ptr %2, align 8, !tbaa !7
  %3 = load ptr, ptr %2, align 8, !tbaa !7
  %4 = call i32 @_Py_IsImmortal(ptr noundef %3)
  %5 = icmp ne i32 %4, 0
  br i1 %5, label %6, label %7

6:                                                ; preds = %1
  br label %16

7:                                                ; preds = %1
  %8 = load ptr, ptr %2, align 8, !tbaa !7
  %9 = getelementptr inbounds nuw %struct._object, ptr %8, i32 0, i32 0
  %10 = getelementptr inbounds nuw %struct.anon, ptr %9, i32 0, i32 0
  %11 = load i32, ptr %10, align 8, !tbaa !20
  %12 = add i32 %11, -1
  store i32 %12, ptr %10, align 8, !tbaa !20
  %13 = icmp eq i32 %12, 0
  br i1 %13, label %14, label %16

14:                                               ; preds = %7
  %15 = load ptr, ptr %2, align 8, !tbaa !7
  call void @_Py_Dealloc(ptr noundef %15)
  br label %16

16:                                               ; preds = %6, %14, %7
  ret void
}

; Function Attrs: inlinehint nounwind uwtable
define internal i64 @PyBytes_GET_SIZE(ptr noundef %0) #2 {
  %2 = alloca ptr, align 8
  %3 = alloca ptr, align 8
  store ptr %0, ptr %2, align 8, !tbaa !7
  call void @llvm.lifetime.start.p0(i64 8, ptr %3) #9
  %4 = load ptr, ptr %2, align 8, !tbaa !7
  store ptr %4, ptr %3, align 8, !tbaa !3
  %5 = load ptr, ptr %3, align 8, !tbaa !3
  %6 = call i64 @Py_SIZE(ptr noundef %5)
  call void @llvm.lifetime.end.p0(i64 8, ptr %3) #9
  ret i64 %6
}

; Function Attrs: alwaysinline nounwind uwtable
define internal void @Py_INCREF(ptr noundef %0) #4 {
  %2 = alloca ptr, align 8
  %3 = alloca i32, align 4
  %4 = alloca i32, align 4
  store ptr %0, ptr %2, align 8, !tbaa !7
  call void @llvm.lifetime.start.p0(i64 4, ptr %3) #9
  %5 = load ptr, ptr %2, align 8, !tbaa !7
  %6 = getelementptr inbounds nuw %struct._object, ptr %5, i32 0, i32 0
  %7 = getelementptr inbounds nuw %struct.anon, ptr %6, i32 0, i32 0
  %8 = load i32, ptr %7, align 8, !tbaa !20
  store i32 %8, ptr %3, align 4, !tbaa !16
  %9 = load i32, ptr %3, align 4, !tbaa !16
  %10 = icmp slt i32 %9, 0
  br i1 %10, label %11, label %12

11:                                               ; preds = %1
  store i32 1, ptr %4, align 4
  br label %18

12:                                               ; preds = %1
  %13 = load i32, ptr %3, align 4, !tbaa !16
  %14 = add i32 %13, 1
  %15 = load ptr, ptr %2, align 8, !tbaa !7
  %16 = getelementptr inbounds nuw %struct._object, ptr %15, i32 0, i32 0
  %17 = getelementptr inbounds nuw %struct.anon, ptr %16, i32 0, i32 0
  store i32 %14, ptr %17, align 8, !tbaa !20
  store i32 0, ptr %4, align 4
  br label %18

18:                                               ; preds = %12, %11
  call void @llvm.lifetime.end.p0(i64 4, ptr %3) #9
  %19 = load i32, ptr %4, align 4
  switch i32 %19, label %21 [
    i32 0, label %20
    i32 1, label %20
  ]

20:                                               ; preds = %18, %18
  ret void

21:                                               ; preds = %18
  unreachable
}

; Function Attrs: inlinehint nounwind uwtable
define internal i32 @PyType_HasFeature(ptr noundef %0, i64 noundef %1) #2 {
  %3 = alloca ptr, align 8
  %4 = alloca i64, align 8
  %5 = alloca i64, align 8
  store ptr %0, ptr %3, align 8, !tbaa !50
  store i64 %1, ptr %4, align 8, !tbaa !23
  call void @llvm.lifetime.start.p0(i64 8, ptr %5) #9
  %6 = load ptr, ptr %3, align 8, !tbaa !50
  %7 = getelementptr inbounds nuw %struct._typeobject, ptr %6, i32 0, i32 19
  %8 = load i64, ptr %7, align 8, !tbaa !85
  store i64 %8, ptr %5, align 8, !tbaa !23
  %9 = load i64, ptr %5, align 8, !tbaa !23
  %10 = load i64, ptr %4, align 8, !tbaa !23
  %11 = and i64 %9, %10
  %12 = icmp ne i64 %11, 0
  %13 = zext i1 %12 to i32
  call void @llvm.lifetime.end.p0(i64 8, ptr %5) #9
  ret i32 %13
}

; Function Attrs: inlinehint nounwind uwtable
define internal ptr @_Py_TYPE(ptr noundef %0) #2 {
  %2 = alloca ptr, align 8
  store ptr %0, ptr %2, align 8, !tbaa !7
  %3 = load ptr, ptr %2, align 8, !tbaa !7
  %4 = getelementptr inbounds nuw %struct._object, ptr %3, i32 0, i32 1
  %5 = load ptr, ptr %4, align 8, !tbaa !84
  ret ptr %5
}

; Function Attrs: nounwind uwtable
define internal i32 @CharArray_set_value(ptr noundef %0, ptr noundef %1, ptr noundef %2) #0 {
  %4 = alloca i32, align 4
  %5 = alloca ptr, align 8
  %6 = alloca ptr, align 8
  %7 = alloca ptr, align 8
  %8 = alloca ptr, align 8
  %9 = alloca i64, align 8
  %10 = alloca ptr, align 8
  %11 = alloca i32, align 4
  store ptr %0, ptr %5, align 8, !tbaa !7
  store ptr %1, ptr %6, align 8, !tbaa !7
  store ptr %2, ptr %7, align 8, !tbaa !3
  call void @llvm.lifetime.start.p0(i64 8, ptr %8) #9
  call void @llvm.lifetime.start.p0(i64 8, ptr %9) #9
  call void @llvm.lifetime.start.p0(i64 8, ptr %10) #9
  %12 = load ptr, ptr %5, align 8, !tbaa !7
  store ptr %12, ptr %10, align 8, !tbaa !39
  %13 = load ptr, ptr %6, align 8, !tbaa !7
  %14 = icmp eq ptr %13, null
  br i1 %14, label %15, label %17

15:                                               ; preds = %3
  %16 = load ptr, ptr @PyExc_TypeError, align 8, !tbaa !7
  call void @PyErr_SetString(ptr noundef %16, ptr noundef @.str.121)
  store i32 -1, ptr %4, align 4
  store i32 1, ptr %11, align 4
  br label %65

17:                                               ; preds = %3
  %18 = load ptr, ptr %6, align 8, !tbaa !7
  %19 = call ptr @_Py_TYPE(ptr noundef %18)
  %20 = call i32 @PyType_HasFeature(ptr noundef %19, i64 noundef 134217728)
  %21 = icmp ne i32 %20, 0
  br i1 %21, label %29, label %22

22:                                               ; preds = %17
  %23 = load ptr, ptr @PyExc_TypeError, align 8, !tbaa !7
  %24 = load ptr, ptr %6, align 8, !tbaa !7
  %25 = call ptr @_Py_TYPE(ptr noundef %24)
  %26 = getelementptr inbounds nuw %struct._typeobject, ptr %25, i32 0, i32 1
  %27 = load ptr, ptr %26, align 8, !tbaa !57
  %28 = call ptr (ptr, ptr, ...) @PyErr_Format(ptr noundef %23, ptr noundef @.str.122, ptr noundef %27)
  store i32 -1, ptr %4, align 4
  store i32 1, ptr %11, align 4
  br label %65

29:                                               ; preds = %17
  %30 = load ptr, ptr %6, align 8, !tbaa !7
  call void @Py_INCREF(ptr noundef %30)
  br label %31

31:                                               ; preds = %29
  %32 = load ptr, ptr %6, align 8, !tbaa !7
  %33 = call i64 @PyBytes_GET_SIZE(ptr noundef %32)
  store i64 %33, ptr %9, align 8, !tbaa !23
  %34 = load i64, ptr %9, align 8, !tbaa !23
  %35 = load ptr, ptr %10, align 8, !tbaa !39
  %36 = getelementptr inbounds nuw %struct.tagCDataObject, ptr %35, i32 0, i32 4
  %37 = load i64, ptr %36, align 8, !tbaa !45
  %38 = icmp sgt i64 %34, %37
  br i1 %38, label %39, label %42

39:                                               ; preds = %31
  %40 = load ptr, ptr @PyExc_ValueError, align 8, !tbaa !7
  call void @PyErr_SetString(ptr noundef %40, ptr noundef @.str.120)
  %41 = load ptr, ptr %6, align 8, !tbaa !7
  call void @Py_DECREF(ptr noundef %41)
  store i32 -1, ptr %4, align 4
  store i32 1, ptr %11, align 4
  br label %65

42:                                               ; preds = %31
  %43 = load ptr, ptr %6, align 8, !tbaa !7
  %44 = call ptr @PyBytes_AS_STRING(ptr noundef %43)
  store ptr %44, ptr %8, align 8, !tbaa !25
  %45 = load ptr, ptr %10, align 8, !tbaa !39
  call void @LOCK_PTR(ptr noundef %45)
  %46 = load ptr, ptr %10, align 8, !tbaa !39
  %47 = getelementptr inbounds nuw %struct.tagCDataObject, ptr %46, i32 0, i32 1
  %48 = load ptr, ptr %47, align 16, !tbaa !46
  %49 = load ptr, ptr %8, align 8, !tbaa !25
  %50 = load i64, ptr %9, align 8, !tbaa !23
  call void @llvm.memcpy.p0.p0.i64(ptr align 1 %48, ptr align 1 %49, i64 %50, i1 false)
  %51 = load i64, ptr %9, align 8, !tbaa !23
  %52 = load ptr, ptr %10, align 8, !tbaa !39
  %53 = getelementptr inbounds nuw %struct.tagCDataObject, ptr %52, i32 0, i32 4
  %54 = load i64, ptr %53, align 8, !tbaa !45
  %55 = icmp slt i64 %51, %54
  br i1 %55, label %56, label %62

56:                                               ; preds = %42
  %57 = load ptr, ptr %10, align 8, !tbaa !39
  %58 = getelementptr inbounds nuw %struct.tagCDataObject, ptr %57, i32 0, i32 1
  %59 = load ptr, ptr %58, align 16, !tbaa !46
  %60 = load i64, ptr %9, align 8, !tbaa !23
  %61 = getelementptr i8, ptr %59, i64 %60
  store i8 0, ptr %61, align 1, !tbaa !20
  br label %62

62:                                               ; preds = %56, %42
  %63 = load ptr, ptr %10, align 8, !tbaa !39
  call void @UNLOCK_PTR(ptr noundef %63)
  %64 = load ptr, ptr %6, align 8, !tbaa !7
  call void @Py_DECREF(ptr noundef %64)
  store i32 0, ptr %4, align 4
  store i32 1, ptr %11, align 4
  br label %65

65:                                               ; preds = %62, %39, %22, %15
  call void @llvm.lifetime.end.p0(i64 8, ptr %10) #9
  call void @llvm.lifetime.end.p0(i64 8, ptr %9) #9
  call void @llvm.lifetime.end.p0(i64 8, ptr %8) #9
  %66 = load i32, ptr %4, align 4
  ret i32 %66
}