; Function Attrs: nounwind uwtable
define internal range(i32 -1, 1) i32 @CharArray_set_value(ptr noundef readonly captures(none) %0, ptr noundef %1, ptr readnone captures(none) %2) #0 {
  %4 = icmp eq ptr %1, null
  br i1 %4, label %5, label %7

5:                                                ; preds = %3
  %6 = load ptr, ptr @PyExc_TypeError, align 8, !tbaa !27
  tail call void @PyErr_SetString(ptr noundef %6, ptr noundef nonnull @.str.121) #17
  br label %Py_DECREF.exit23

7:                                                ; preds = %3
  %8 = getelementptr i8, ptr %1, i64 8
  %.val25 = load ptr, ptr %8, align 8, !tbaa !10
  %9 = getelementptr i8, ptr %.val25, i64 168
  %.val26 = load i64, ptr %9, align 8, !tbaa !12
  %10 = and i64 %.val26, 134217728
  %.not = icmp eq i64 %10, 0
  br i1 %.not, label %11, label %16

11:                                               ; preds = %7
  %12 = load ptr, ptr @PyExc_TypeError, align 8, !tbaa !27
  %13 = getelementptr inbounds nuw i8, ptr %.val25, i64 24
  %14 = load ptr, ptr %13, align 8, !tbaa !53
  %15 = tail call ptr (ptr, ptr, ...) @PyErr_Format(ptr noundef %12, ptr noundef nonnull @.str.122, ptr noundef %14) #17
  br label %Py_DECREF.exit23

16:                                               ; preds = %7
  %17 = load i32, ptr %1, align 8, !tbaa !23
  %18 = icmp slt i32 %17, 0
  br i1 %18, label %Py_INCREF.exit, label %19

19:                                               ; preds = %16
  %20 = add nuw i32 %17, 1
  store i32 %20, ptr %1, align 8, !tbaa !23
  br label %Py_INCREF.exit

Py_INCREF.exit:                                   ; preds = %16, %19
  %21 = getelementptr i8, ptr %1, i64 16
  %.val27 = load i64, ptr %21, align 8, !tbaa !94
  %22 = getelementptr inbounds nuw i8, ptr %0, i64 40
  %23 = load i64, ptr %22, align 8, !tbaa !41
  %24 = icmp sgt i64 %.val27, %23
  br i1 %24, label %25, label %32

25:                                               ; preds = %Py_INCREF.exit
  %26 = load ptr, ptr @PyExc_ValueError, align 8, !tbaa !27
  tail call void @PyErr_SetString(ptr noundef %26, ptr noundef nonnull @.str.120) #17
  %27 = load i32, ptr %1, align 8, !tbaa !23
  %.not.i22 = icmp sgt i32 %27, -1
  br i1 %.not.i22, label %28, label %Py_DECREF.exit23

28:                                               ; preds = %25
  %29 = add nsw i32 %27, -1
  store i32 %29, ptr %1, align 8, !tbaa !23
  %30 = icmp eq i32 %29, 0
  br i1 %30, label %31, label %Py_DECREF.exit23

31:                                               ; preds = %28
  tail call void @_Py_Dealloc(ptr noundef nonnull %1) #17
  br label %Py_DECREF.exit23

32:                                               ; preds = %Py_INCREF.exit
  %33 = getelementptr inbounds nuw i8, ptr %1, i64 32
  %34 = getelementptr inbounds nuw i8, ptr %0, i64 16
  %35 = load ptr, ptr %34, align 16, !tbaa !42
  tail call void @llvm.memcpy.p0.p0.i64(ptr align 1 %35, ptr nonnull align 1 %33, i64 %.val27, i1 false)
  %36 = load i64, ptr %22, align 8, !tbaa !41
  %37 = icmp slt i64 %.val27, %36
  br i1 %37, label %38, label %41

38:                                               ; preds = %32
  %39 = load ptr, ptr %34, align 16, !tbaa !42
  %40 = getelementptr i8, ptr %39, i64 %.val27
  store i8 0, ptr %40, align 1, !tbaa !23
  br label %41

41:                                               ; preds = %38, %32
  %42 = load i32, ptr %1, align 8, !tbaa !23
  %.not.i = icmp sgt i32 %42, -1
  br i1 %.not.i, label %43, label %Py_DECREF.exit23

43:                                               ; preds = %41
  %44 = add nsw i32 %42, -1
  store i32 %44, ptr %1, align 8, !tbaa !23
  %45 = icmp eq i32 %44, 0
  br i1 %45, label %46, label %Py_DECREF.exit23

46:                                               ; preds = %43
  tail call void @_Py_Dealloc(ptr noundef nonnull %1) #17
  br label %Py_DECREF.exit23

Py_DECREF.exit23:                                 ; preds = %46, %43, %41, %31, %28, %25, %11, %5
  %.0 = phi i32 [ -1, %5 ], [ -1, %11 ], [ -1, %25 ], [ -1, %28 ], [ -1, %31 ], [ 0, %41 ], [ 0, %43 ], [ 0, %46 ]
  ret i32 %.0
}